target datalayout = "e-m:e-p270:32:32-p271:32:32-p272:64:64-i64:64-i128:128-f80:128-n8:16:32:64-S128"
target triple = "x86_64-unknown-linux-gnu"

%"class.std::basic_string_view" = type { i64, ptr }
%"class.std::__cxx11::basic_string" = type { %"struct.std::__cxx11::basic_string<char>::_Alloc_hider", i64, %union.anon }
%"struct.std::__cxx11::basic_string<char>::_Alloc_hider" = type { ptr }
%union.anon = type { i64, [8 x i8] }
%"class.google::protobuf::Descriptor" = type { %"class.google::protobuf::internal::SymbolBase", i8, i16, i32, ptr, ptr, ptr, ptr, ptr, ptr, ptr, ptr, ptr, ptr, ptr, ptr, ptr, ptr, i32, i32, i32, i32, i32, i32, i32, i32 }
%"class.google::protobuf::internal::SymbolBase" = type { i8 }
%"class.google::protobuf::FileDescriptor" = type { %"class.google::protobuf::internal::SymbolBase", i8, i8, i32, ptr, ptr, ptr, i32, ptr, i32, i32, i32, i32, i32, i32, ptr, ptr, ptr, ptr, ptr, ptr, ptr, ptr, ptr, ptr, ptr, ptr }

@_ZN6google8protobuf8compiler3cpp12_GLOBAL__N_113kAnyProtoFileE = internal constant %"class.std::basic_string_view" { i64 25, ptr @.str.99 }, align 8
@_ZN6google8protobuf8compiler3cpp12_GLOBAL__N_115kAnyMessageNameE = internal constant %"class.std::basic_string_view" { i64 3, ptr @.str.246 }, align 8

; Function Attrs: noreturn nounwind uwtable
define linkonce_odr hidden void @__clang_call_terminate(ptr noundef %0) #13 comdat {
  %2 = call ptr @__cxa_begin_catch(ptr %0) #3
  call void @_ZSt9terminatev() #23
  unreachable
}

; Function Attrs: mustprogress nounwind uwtable
define linkonce_odr hidden noundef i32 @_ZNSt17basic_string_viewIcSt11char_traitsIcEE10_S_compareEmm(i64 noundef %__n1, i64 noundef %__n2) #5 comdat align 2 {
entry:
  %retval = alloca i32, align 4
  %__n1.addr = alloca i64, align 8
  %__n2.addr = alloca i64, align 8
  %__diff = alloca i64, align 8
  store i64 %__n1, ptr %__n1.addr, align 8
  store i64 %__n2, ptr %__n2.addr, align 8
  %0 = load i64, ptr %__n1.addr, align 8
  %1 = load i64, ptr %__n2.addr, align 8
  %sub = sub i64 %0, %1
  store i64 %sub, ptr %__diff, align 8
  %2 = load i64, ptr %__diff, align 8
  %cmp = icmp sgt i64 %2, 2147483647
  br i1 %cmp, label %if.then, label %if.end

if.then:                                          ; preds = %entry
  store i32 2147483647, ptr %retval, align 4
  br label %return

if.end:                                           ; preds = %entry
  %3 = load i64, ptr %__diff, align 8
  %cmp1 = icmp slt i64 %3, -2147483648
  br i1 %cmp1, label %if.then2, label %if.end3

if.then2:                                         ; preds = %if.end
  store i32 -2147483648, ptr %retval, align 4
  br label %return

if.end3:                                          ; preds = %if.end
  %4 = load i64, ptr %__diff, align 8
  %conv = trunc i64 %4 to i32
  store i32 %conv, ptr %retval, align 4
  br label %return

return:                                           ; preds = %if.end3, %if.then2, %if.then
  %5 = load i32, ptr %retval, align 4
  ret i32 %5
}

; Function Attrs: mustprogress nounwind uwtable
define linkonce_odr hidden noundef i32 @_ZNSt11char_traitsIcE7compareEPKcS2_m(ptr noundef %__s1, ptr noundef %__s2, i64 noundef %__n) #5 comdat align 2 {
entry:
  %retval = alloca i32, align 4
  %__s1.addr = alloca ptr, align 8
  %__s2.addr = alloca ptr, align 8
  %__n.addr = alloca i64, align 8
  store ptr %__s1, ptr %__s1.addr, align 8
  store ptr %__s2, ptr %__s2.addr, align 8
  store i64 %__n, ptr %__n.addr, align 8
  %0 = load i64, ptr %__n.addr, align 8
  %cmp = icmp eq i64 %0, 0
  br i1 %cmp, label %if.then, label %if.end

if.then:                                          ; preds = %entry
  store i32 0, ptr %retval, align 4
  br label %return

if.end:                                           ; preds = %entry
  %1 = load ptr, ptr %__s1.addr, align 8
  %2 = load ptr, ptr %__s2.addr, align 8
  %3 = load i64, ptr %__n.addr, align 8
  %call = call i32 @memcmp(ptr noundef %1, ptr noundef %2, i64 noundef %3) #3
  store i32 %call, ptr %retval, align 4
  br label %return

return:                                           ; preds = %if.end, %if.then
  %4 = load i32, ptr %retval, align 4
  ret i32 %4
}

; Function Attrs: mustprogress nounwind uwtable
define linkonce_odr noundef nonnull align 8 dereferenceable(8) ptr @_ZSt3minImERKT_S2_S2_(ptr noundef nonnull align 8 dereferenceable(8) %__a, ptr noundef nonnull align 8 dereferenceable(8) %__b) #5 comdat {
entry:
  %retval = alloca ptr, align 8
  %__a.addr = alloca ptr, align 8
  %__b.addr = alloca ptr, align 8
  store ptr %__a, ptr %__a.addr, align 8
  store ptr %__b, ptr %__b.addr, align 8
  %0 = load ptr, ptr %__b.addr, align 8
  %1 = load i64, ptr %0, align 8
  %2 = load ptr, ptr %__a.addr, align 8
  %3 = load i64, ptr %2, align 8
  %cmp = icmp ult i64 %1, %3
  br i1 %cmp, label %if.then, label %if.end

if.then:                                          ; preds = %entry
  %4 = load ptr, ptr %__b.addr, align 8
  store ptr %4, ptr %retval, align 8
  br label %return

if.end:                                           ; preds = %entry
  %5 = load ptr, ptr %__a.addr, align 8
  store ptr %5, ptr %retval, align 8
  br label %return

return:                                           ; preds = %if.end, %if.then
  %6 = load ptr, ptr %retval, align 8
  ret ptr %6
}

; Function Attrs: mustprogress nounwind uwtable
define linkonce_odr hidden noundef nonnull align 8 dereferenceable(32) ptr @_ZNK6google8protobuf14FileDescriptor4nameB5cxx11Ev(ptr noundef nonnull align 8 dereferenceable(168) %this) #5 comdat align 2 {
entry:
  %this.addr = alloca ptr, align 8
  store ptr %this, ptr %this.addr, align 8
  %this1 = load ptr, ptr %this.addr, align 8
  %name_ = getelementptr inbounds %"class.google::protobuf::FileDescriptor", ptr %this1, i32 0, i32 4
  %0 = load ptr, ptr %name_, align 8
  ret ptr %0
}

; Function Attrs: mustprogress nounwind uwtable
define linkonce_odr hidden noundef i32 @_ZNKSt17basic_string_viewIcSt11char_traitsIcEE7compareES2_(ptr noundef nonnull align 8 dereferenceable(16) %this, i64 %__str.coerce0, ptr %__str.coerce1) #5 comdat align 2 personality ptr @__gxx_personality_v0 {
entry:
  %__str = alloca %"class.std::basic_string_view", align 8
  %this.addr = alloca ptr, align 8
  %__rlen = alloca i64, align 8
  %__ret = alloca i32, align 4
  %0 = getelementptr inbounds { i64, ptr }, ptr %__str, i32 0, i32 0
  store i64 %__str.coerce0, ptr %0, align 8
  %1 = getelementptr inbounds { i64, ptr }, ptr %__str, i32 0, i32 1
  store ptr %__str.coerce1, ptr %1, align 8
  store ptr %this, ptr %this.addr, align 8
  %this1 = load ptr, ptr %this.addr, align 8
  %_M_len = getelementptr inbounds %"class.std::basic_string_view", ptr %this1, i32 0, i32 0
  %_M_len2 = getelementptr inbounds %"class.std::basic_string_view", ptr %__str, i32 0, i32 0
  %call = invoke noundef nonnull align 8 dereferenceable(8) ptr @_ZSt3minImERKT_S2_S2_(ptr noundef nonnull align 8 dereferenceable(8) %_M_len, ptr noundef nonnull align 8 dereferenceable(8) %_M_len2)
          to label %invoke.cont unwind label %terminate.lpad

invoke.cont:                                      ; preds = %entry
  %2 = load i64, ptr %call, align 8
  store i64 %2, ptr %__rlen, align 8
  %_M_str = getelementptr inbounds %"class.std::basic_string_view", ptr %this1, i32 0, i32 1
  %3 = load ptr, ptr %_M_str, align 8
  %_M_str3 = getelementptr inbounds %"class.std::basic_string_view", ptr %__str, i32 0, i32 1
  %4 = load ptr, ptr %_M_str3, align 8
  %5 = load i64, ptr %__rlen, align 8
  %call5 = invoke noundef i32 @_ZNSt11char_traitsIcE7compareEPKcS2_m(ptr noundef %3, ptr noundef %4, i64 noundef %5)
          to label %invoke.cont4 unwind label %terminate.lpad

invoke.cont4:                                     ; preds = %invoke.cont
  store i32 %call5, ptr %__ret, align 4
  %6 = load i32, ptr %__ret, align 4
  %cmp = icmp eq i32 %6, 0
  br i1 %cmp, label %if.then, label %if.end

if.then:                                          ; preds = %invoke.cont4
  %_M_len6 = getelementptr inbounds %"class.std::basic_string_view", ptr %this1, i32 0, i32 0
  %7 = load i64, ptr %_M_len6, align 8
  %_M_len7 = getelementptr inbounds %"class.std::basic_string_view", ptr %__str, i32 0, i32 0
  %8 = load i64, ptr %_M_len7, align 8
  %call8 = call noundef i32 @_ZNSt17basic_string_viewIcSt11char_traitsIcEE10_S_compareEmm(i64 noundef %7, i64 noundef %8) #3
  store i32 %call8, ptr %__ret, align 4
  br label %if.end

if.end:                                           ; preds = %if.then, %invoke.cont4
  %9 = load i32, ptr %__ret, align 4
  ret i32 %9

terminate.lpad:                                   ; preds = %invoke.cont, %entry
  %10 = landingpad { ptr, i32 }
          catch ptr null
  %11 = extractvalue { ptr, i32 } %10, 0
  call void @__clang_call_terminate(ptr %11) #23
  unreachable
}

; Function Attrs: mustprogress nounwind uwtable
define linkonce_odr hidden noundef i64 @_ZNKSt17basic_string_viewIcSt11char_traitsIcEE4sizeEv(ptr noundef nonnull align 8 dereferenceable(16) %this) #5 comdat align 2 {
entry:
  %this.addr = alloca ptr, align 8
  store ptr %this, ptr %this.addr, align 8
  %this1 = load ptr, ptr %this.addr, align 8
  %_M_len = getelementptr inbounds %"class.std::basic_string_view", ptr %this1, i32 0, i32 0
  %0 = load i64, ptr %_M_len, align 8
  ret i64 %0
}

; Function Attrs: mustprogress uwtable
define hidden noundef zeroext i1 @_ZN6google8protobuf8compiler3cpp12IsAnyMessageEPKNS0_14FileDescriptorE(ptr noundef %descriptor) #4 {
entry:
  %descriptor.addr = alloca ptr, align 8
  %agg.tmp = alloca %"class.std::basic_string_view", align 8
  %agg.tmp2 = alloca %"class.std::basic_string_view", align 8
  store ptr %descriptor, ptr %descriptor.addr, align 8
  %0 = load ptr, ptr %descriptor.addr, align 8
  %call = call noundef nonnull align 8 dereferenceable(32) ptr @_ZNK6google8protobuf14FileDescriptor4nameB5cxx11Ev(ptr noundef nonnull align 8 dereferenceable(168) %0)
  %call1 = call { i64, ptr } @_ZNKSt7__cxx1112basic_stringIcSt11char_traitsIcESaIcEEcvSt17basic_string_viewIcS2_EEv(ptr noundef nonnull align 8 dereferenceable(32) %call) #3
  %1 = getelementptr inbounds { i64, ptr }, ptr %agg.tmp, i32 0, i32 0
  %2 = extractvalue { i64, ptr } %call1, 0
  store i64 %2, ptr %1, align 8
  %3 = getelementptr inbounds { i64, ptr }, ptr %agg.tmp, i32 0, i32 1
  %4 = extractvalue { i64, ptr } %call1, 1
  store ptr %4, ptr %3, align 8
  call void @llvm.memcpy.p0.p0.i64(ptr align 8 %agg.tmp2, ptr align 8 @_ZN6google8protobuf8compiler3cpp12_GLOBAL__N_113kAnyProtoFileE, i64 16, i1 false)
  %5 = getelementptr inbounds { i64, ptr }, ptr %agg.tmp, i32 0, i32 0
  %6 = load i64, ptr %5, align 8
  %7 = getelementptr inbounds { i64, ptr }, ptr %agg.tmp, i32 0, i32 1
  %8 = load ptr, ptr %7, align 8
  %9 = getelementptr inbounds { i64, ptr }, ptr %agg.tmp2, i32 0, i32 0
  %10 = load i64, ptr %9, align 8
  %11 = getelementptr inbounds { i64, ptr }, ptr %agg.tmp2, i32 0, i32 1
  %12 = load ptr, ptr %11, align 8
  %call3 = call noundef zeroext i1 @_ZSteqIcSt11char_traitsIcEEbNSt15__type_identityISt17basic_string_viewIT_T0_EE4typeES6_(i64 %6, ptr %8, i64 %10, ptr %12) #3
  ret i1 %call3
}

; Function Attrs: mustprogress nounwind uwtable
define linkonce_odr hidden noundef ptr @_ZNK6google8protobuf10Descriptor4fileEv(ptr noundef nonnull align 8 dereferenceable(152) %this) #5 comdat align 2 {
entry:
  %this.addr = alloca ptr, align 8
  store ptr %this, ptr %this.addr, align 8
  %this1 = load ptr, ptr %this.addr, align 8
  %file_ = getelementptr inbounds %"class.google::protobuf::Descriptor", ptr %this1, i32 0, i32 5
  %0 = load ptr, ptr %file_, align 8
  ret ptr %0
}

; Function Attrs: mustprogress nounwind uwtable
define linkonce_odr noundef zeroext i1 @_ZSteqIcSt11char_traitsIcEEbNSt15__type_identityISt17basic_string_viewIT_T0_EE4typeES6_(i64 %__x.coerce0, ptr %__x.coerce1, i64 %__y.coerce0, ptr %__y.coerce1) #5 comdat {
entry:
  %__x = alloca %"class.std::basic_string_view", align 8
  %__y = alloca %"class.std::basic_string_view", align 8
  %agg.tmp = alloca %"class.std::basic_string_view", align 8
  %0 = getelementptr inbounds { i64, ptr }, ptr %__x, i32 0, i32 0
  store i64 %__x.coerce0, ptr %0, align 8
  %1 = getelementptr inbounds { i64, ptr }, ptr %__x, i32 0, i32 1
  store ptr %__x.coerce1, ptr %1, align 8
  %2 = getelementptr inbounds { i64, ptr }, ptr %__y, i32 0, i32 0
  store i64 %__y.coerce0, ptr %2, align 8
  %3 = getelementptr inbounds { i64, ptr }, ptr %__y, i32 0, i32 1
  store ptr %__y.coerce1, ptr %3, align 8
  %call = call noundef i64 @_ZNKSt17basic_string_viewIcSt11char_traitsIcEE4sizeEv(ptr noundef nonnull align 8 dereferenceable(16) %__x) #3
  %call1 = call noundef i64 @_ZNKSt17basic_string_viewIcSt11char_traitsIcEE4sizeEv(ptr noundef nonnull align 8 dereferenceable(16) %__y) #3
  %cmp = icmp eq i64 %call, %call1
  br i1 %cmp, label %land.rhs, label %land.end

land.rhs:                                         ; preds = %entry
  call void @llvm.memcpy.p0.p0.i64(ptr align 8 %agg.tmp, ptr align 8 %__y, i64 16, i1 false)
  %4 = getelementptr inbounds { i64, ptr }, ptr %agg.tmp, i32 0, i32 0
  %5 = load i64, ptr %4, align 8
  %6 = getelementptr inbounds { i64, ptr }, ptr %agg.tmp, i32 0, i32 1
  %7 = load ptr, ptr %6, align 8
  %call2 = call noundef i32 @_ZNKSt17basic_string_viewIcSt11char_traitsIcEE7compareES2_(ptr noundef nonnull align 8 dereferenceable(16) %__x, i64 %5, ptr %7) #3
  %cmp3 = icmp eq i32 %call2, 0
  br label %land.end

land.end:                                         ; preds = %land.rhs, %entry
  %8 = phi i1 [ false, %entry ], [ %cmp3, %land.rhs ]
  ret i1 %8
}

; Function Attrs: mustprogress nounwind uwtable
define linkonce_odr hidden noundef nonnull align 8 dereferenceable(32) ptr @_ZNK6google8protobuf10Descriptor4nameB5cxx11Ev(ptr noundef nonnull align 8 dereferenceable(152) %this) #5 comdat align 2 {
entry:
  %this.addr = alloca ptr, align 8
  store ptr %this, ptr %this.addr, align 8
  %this1 = load ptr, ptr %this.addr, align 8
  %all_names_ = getelementptr inbounds %"class.google::protobuf::Descriptor", ptr %this1, i32 0, i32 4
  %0 = load ptr, ptr %all_names_, align 8
  %arrayidx = getelementptr inbounds %"class.std::__cxx11::basic_string", ptr %0, i64 0
  ret ptr %arrayidx
}

; Function Attrs: mustprogress uwtable
define hidden noundef zeroext i1 @_ZN6google8protobuf8compiler3cpp12IsAnyMessageEPKNS0_10DescriptorE(ptr noundef %descriptor) #4 {
entry:
  %descriptor.addr = alloca ptr, align 8
  %agg.tmp = alloca %"class.std::basic_string_view", align 8
  %agg.tmp2 = alloca %"class.std::basic_string_view", align 8
  store ptr %descriptor, ptr %descriptor.addr, align 8
  %0 = load ptr, ptr %descriptor.addr, align 8
  %call = call noundef nonnull align 8 dereferenceable(32) ptr @_ZNK6google8protobuf10Descriptor4nameB5cxx11Ev(ptr noundef nonnull align 8 dereferenceable(152) %0)
  %call1 = call { i64, ptr } @_ZNKSt7__cxx1112basic_stringIcSt11char_traitsIcESaIcEEcvSt17basic_string_viewIcS2_EEv(ptr noundef nonnull align 8 dereferenceable(32) %call) #3
  %1 = getelementptr inbounds { i64, ptr }, ptr %agg.tmp, i32 0, i32 0
  %2 = extractvalue { i64, ptr } %call1, 0
  store i64 %2, ptr %1, align 8
  %3 = getelementptr inbounds { i64, ptr }, ptr %agg.tmp, i32 0, i32 1
  %4 = extractvalue { i64, ptr } %call1, 1
  store ptr %4, ptr %3, align 8
  call void @llvm.memcpy.p0.p0.i64(ptr align 8 %agg.tmp2, ptr align 8 @_ZN6google8protobuf8compiler3cpp12_GLOBAL__N_115kAnyMessageNameE, i64 16, i1 false)
  %5 = getelementptr inbounds { i64, ptr }, ptr %agg.tmp, i32 0, i32 0
  %6 = load i64, ptr %5, align 8
  %7 = getelementptr inbounds { i64, ptr }, ptr %agg.tmp, i32 0, i32 1
  %8 = load ptr, ptr %7, align 8
  %9 = getelementptr inbounds { i64, ptr }, ptr %agg.tmp2, i32 0, i32 0
  %10 = load i64, ptr %9, align 8
  %11 = getelementptr inbounds { i64, ptr }, ptr %agg.tmp2, i32 0, i32 1
  %12 = load ptr, ptr %11, align 8
  %call3 = call noundef zeroext i1 @_ZSteqIcSt11char_traitsIcEEbNSt15__type_identityISt17basic_string_viewIT_T0_EE4typeES6_(i64 %6, ptr %8, i64 %10, ptr %12) #3
  br i1 %call3, label %land.rhs, label %land.end

land.rhs:                                         ; preds = %entry
  %13 = load ptr, ptr %descriptor.addr, align 8
  %call4 = call noundef ptr @_ZNK6google8protobuf10Descriptor4fileEv(ptr noundef nonnull align 8 dereferenceable(152) %13)
  %call5 = call noundef zeroext i1 @_ZN6google8protobuf8compiler3cpp12IsAnyMessageEPKNS0_14FileDescriptorE(ptr noundef %call4)
  br label %land.end

land.end:                                         ; preds = %land.rhs, %entry
  %14 = phi i1 [ false, %entry ], [ %call5, %land.rhs ]
  ret i1 %14
}