; Function Attrs: mustprogress nounwind uwtable
define hidden noundef zeroext i1 @_ZN6google8protobuf8compiler3cpp12IsAnyMessageEPKNS0_10DescriptorE(ptr nocapture noundef readonly %descriptor) local_unnamed_addr #7 personality ptr @__gxx_personality_v0 {
entry:
  %all_names_.i = getelementptr inbounds i8, ptr %descriptor, i64 8
  %0 = load ptr, ptr %all_names_.i, align 8
  %call1 = tail call { i64, ptr } @_ZNKSt7__cxx1112basic_stringIcSt11char_traitsIcESaIcEEcvSt17basic_string_viewIcS2_EEv(ptr noundef nonnull align 8 dereferenceable(32) %0) #26
  %1 = extractvalue { i64, ptr } %call1, 0
  %cmp.i = icmp eq i64 %1, 3
  br i1 %cmp.i, label %_ZNSt11char_traitsIcE7compareEPKcS2_m.exit.i.i, label %land.end

_ZNSt11char_traitsIcE7compareEPKcS2_m.exit.i.i:   ; preds = %entry
  %2 = extractvalue { i64, ptr } %call1, 1
  %bcmp.i = tail call i32 @bcmp(ptr noundef nonnull dereferenceable(3) %2, ptr noundef nonnull dereferenceable(3) @.str.246, i64 3)
  %cmp.i.i = icmp eq i32 %bcmp.i, 0
  br i1 %cmp.i.i, label %land.rhs, label %land.end

land.rhs:                                         ; preds = %_ZNSt11char_traitsIcE7compareEPKcS2_m.exit.i.i
  %file_.i = getelementptr inbounds i8, ptr %descriptor, i64 16
  %3 = load ptr, ptr %file_.i, align 8
  %name_.i.i = getelementptr inbounds i8, ptr %3, i64 8
  %4 = load ptr, ptr %name_.i.i, align 8
  %call1.i = tail call { i64, ptr } @_ZNKSt7__cxx1112basic_stringIcSt11char_traitsIcESaIcEEcvSt17basic_string_viewIcS2_EEv(ptr noundef nonnull align 8 dereferenceable(32) %4) #26
  %5 = extractvalue { i64, ptr } %call1.i, 0
  %cmp.i.i2 = icmp eq i64 %5, 25
  br i1 %cmp.i.i2, label %_ZNSt11char_traitsIcE7compareEPKcS2_m.exit.i.i.i, label %land.end

_ZNSt11char_traitsIcE7compareEPKcS2_m.exit.i.i.i: ; preds = %land.rhs
  %6 = extractvalue { i64, ptr } %call1.i, 1
  %bcmp.i.i = tail call i32 @bcmp(ptr noundef nonnull dereferenceable(25) %6, ptr noundef nonnull dereferenceable(25) @.str.99, i64 25)
  %cmp.i.i.i = icmp eq i32 %bcmp.i.i, 0
  br label %land.end

land.end:                                         ; preds = %_ZNSt11char_traitsIcE7compareEPKcS2_m.exit.i.i, %entry, %_ZNSt11char_traitsIcE7compareEPKcS2_m.exit.i.i.i, %land.rhs
  %7 = phi i1 [ false, %land.rhs ], [ %cmp.i.i.i, %_ZNSt11char_traitsIcE7compareEPKcS2_m.exit.i.i.i ], [ false, %entry ], [ false, %_ZNSt11char_traitsIcE7compareEPKcS2_m.exit.i.i ]
  ret i1 %7
}